target datalayout = "e-m:e-p270:32:32-p271:32:32-p272:64:64-i64:64-i128:128-f80:128-n8:16:32:64-S128"
target triple = "x86_64-pc-linux-gnu"

%struct.pcre2_memctl = type { ptr, ptr, ptr }
%struct.sljit_stack = type { ptr, ptr, ptr, ptr }
%struct.pcre2_real_jit_stack_8 = type { %struct.pcre2_memctl, ptr }

; Function Attrs: nounwind uwtable
define internal void @pcre2_jit_free(ptr noundef %0, ptr noundef %1) #0 {
  %3 = alloca ptr, align 8
  %4 = alloca ptr, align 8
  %5 = alloca ptr, align 8
  store ptr %0, ptr %3, align 8
  store ptr %1, ptr %4, align 8
  %6 = load ptr, ptr %4, align 8
  store ptr %6, ptr %5, align 8
  %7 = load ptr, ptr %5, align 8
  %8 = getelementptr inbounds %struct.pcre2_memctl, ptr %7, i32 0, i32 1
  %9 = load ptr, ptr %8, align 8
  %10 = load ptr, ptr %3, align 8
  %11 = load ptr, ptr %5, align 8
  %12 = getelementptr inbounds %struct.pcre2_memctl, ptr %11, i32 0, i32 2
  %13 = load ptr, ptr %12, align 8
  call void %9(ptr noundef %10, ptr noundef %13)
  ret void
}

; Function Attrs: nounwind uwtable
define internal void @sljit_free_stack(ptr noundef %0, ptr noundef %1) #0 {
  %3 = alloca ptr, align 8
  %4 = alloca ptr, align 8
  store ptr %0, ptr %3, align 8
  store ptr %1, ptr %4, align 8
  %5 = load ptr, ptr %3, align 8
  %6 = getelementptr inbounds %struct.sljit_stack, ptr %5, i32 0, i32 3
  %7 = load ptr, ptr %6, align 8
  %8 = load ptr, ptr %3, align 8
  %9 = getelementptr inbounds %struct.sljit_stack, ptr %8, i32 0, i32 1
  %10 = load ptr, ptr %9, align 8
  %11 = load ptr, ptr %3, align 8
  %12 = getelementptr inbounds %struct.sljit_stack, ptr %11, i32 0, i32 3
  %13 = load ptr, ptr %12, align 8
  %14 = ptrtoint ptr %10 to i64
  %15 = ptrtoint ptr %13 to i64
  %16 = sub i64 %14, %15
  %17 = call i32 @munmap(ptr noundef %7, i64 noundef %16) #6
  %18 = load ptr, ptr %3, align 8
  %19 = load ptr, ptr %4, align 8
  call void @pcre2_jit_free(ptr noundef %18, ptr noundef %19)
  ret void
}

; Function Attrs: nounwind uwtable
define void @php_pcre2_jit_stack_free(ptr noundef %0) #0 {
  %2 = alloca ptr, align 8
  store ptr %0, ptr %2, align 8
  %3 = load ptr, ptr %2, align 8
  %4 = icmp ne ptr %3, null
  br i1 %4, label %5, label %20

5:                                                ; preds = %1
  %6 = load ptr, ptr %2, align 8
  %7 = getelementptr inbounds %struct.pcre2_real_jit_stack_8, ptr %6, i32 0, i32 1
  %8 = load ptr, ptr %7, align 8
  %9 = load ptr, ptr %2, align 8
  %10 = getelementptr inbounds %struct.pcre2_real_jit_stack_8, ptr %9, i32 0, i32 0
  call void @sljit_free_stack(ptr noundef %8, ptr noundef %10)
  %11 = load ptr, ptr %2, align 8
  %12 = getelementptr inbounds %struct.pcre2_real_jit_stack_8, ptr %11, i32 0, i32 0
  %13 = getelementptr inbounds %struct.pcre2_memctl, ptr %12, i32 0, i32 1
  %14 = load ptr, ptr %13, align 8
  %15 = load ptr, ptr %2, align 8
  %16 = load ptr, ptr %2, align 8
  %17 = getelementptr inbounds %struct.pcre2_real_jit_stack_8, ptr %16, i32 0, i32 0
  %18 = getelementptr inbounds %struct.pcre2_memctl, ptr %17, i32 0, i32 2
  %19 = load ptr, ptr %18, align 8
  call void %14(ptr noundef %15, ptr noundef %19)
  br label %20

20:                                               ; preds = %5, %1
  ret void
}