; Function Attrs: nounwind uwtable
define void @php_pcre2_jit_stack_free(ptr noundef %0) local_unnamed_addr #0 {
  %.not = icmp eq ptr %0, null
  br i1 %.not, label %17, label %2

2:                                                ; preds = %1
  %3 = getelementptr inbounds i8, ptr %0, i64 24
  %4 = load ptr, ptr %3, align 8
  %5 = getelementptr inbounds i8, ptr %4, i64 24
  %6 = load ptr, ptr %5, align 8
  %7 = getelementptr inbounds i8, ptr %4, i64 8
  %8 = load ptr, ptr %7, align 8
  %9 = ptrtoint ptr %8 to i64
  %10 = ptrtoint ptr %6 to i64
  %11 = sub i64 %9, %10
  %12 = tail call i32 @munmap(ptr noundef %6, i64 noundef %11) #18
  %13 = getelementptr i8, ptr %0, i64 8
  %.val.i = load ptr, ptr %13, align 8
  %14 = getelementptr i8, ptr %0, i64 16
  %.val5.i = load ptr, ptr %14, align 8
  tail call void %.val.i(ptr noundef %4, ptr noundef %.val5.i) #18
  %15 = load ptr, ptr %13, align 8
  %16 = load ptr, ptr %14, align 8
  tail call void %15(ptr noundef nonnull %0, ptr noundef %16) #18
  br label %17

17:                                               ; preds = %2, %1
  ret void
}